; Function Attrs: null_pointer_is_valid sspstrong uwtable
define internal i32 @dissect_h225_Facility_UUIE(ptr noundef %0, i32 noundef %1, ptr noundef %2, ptr noundef %3, i32 noundef %4) #0 {
  %6 = load i32, ptr @ett_h225_Facility_UUIE, align 4
  %7 = tail call i32 @dissect_per_sequence(ptr noundef %0, i32 noundef %1, ptr noundef %2, ptr noundef %3, i32 noundef %4, i32 noundef %6, ptr noundef nonnull @Facility_UUIE_sequence)
  %8 = getelementptr inbounds nuw i8, ptr %2, i64 16
  %9 = load ptr, ptr %8, align 8
  %10 = getelementptr inbounds nuw i8, ptr %9, i64 408
  %11 = load ptr, ptr %10, align 8
  %12 = load i32, ptr @proto_h225, align 4
  %13 = tail call ptr @p_get_proto_data(ptr noundef %11, ptr noundef %9, i32 noundef %12, i32 noundef 0)
  %14 = icmp eq ptr %13, null
  br i1 %14, label %h225_set_cs_type.exit, label %15

15:                                               ; preds = %5
  %16 = getelementptr inbounds nuw i8, ptr %13, i64 4
  store i32 6, ptr %16, align 4
  %17 = getelementptr inbounds nuw i8, ptr %13, i64 196
  %18 = tail call ptr @val_to_str_const(i32 noundef 6, ptr noundef nonnull @T_h323_message_body_vals, ptr noundef nonnull @.str.193)
  %19 = tail call i32 (ptr, i64, i32, i64, ptr, ...) @__snprintf_chk(ptr noundef nonnull %17, i64 noundef 50, i32 noundef 2, i64 noundef 50, ptr noundef nonnull @.str.1691, ptr noundef %18)
  br label %h225_set_cs_type.exit

h225_set_cs_type.exit:                            ; preds = %5, %15
  ret i32 %7
}